; Function Attrs: mustprogress uwtable
define void @_ZNK10open_spiel11tiny_bridge22TinyBridgeAuctionState16PlayerHandStringB5cxx11Eib(ptr dead_on_unwind noalias writable sret(%"class.std::__cxx11::basic_string") align 8 %0, ptr nocapture noundef nonnull readonly align 8 dereferenceable(97) %1, i32 noundef %2, i1 noundef zeroext %3) local_unnamed_addr #3 align 2 personality ptr @__gxx_personality_v0 {
  %5 = alloca %"class.std::allocator", align 1
  %6 = alloca %"class.std::allocator", align 1
  %7 = getelementptr inbounds nuw i8, ptr %1, i64 72
  %8 = getelementptr inbounds i8, ptr %1, i64 80
  %9 = load ptr, ptr %8, align 8
  %10 = load ptr, ptr %7, align 8
  %11 = ptrtoint ptr %9 to i64
  %12 = ptrtoint ptr %10 to i64
  %13 = sub i64 %11, %12
  %14 = ashr exact i64 %13, 2
  %15 = sext i32 %2 to i64
  %16 = icmp ugt i64 %14, %15
  br i1 %16, label %23, label %17

17:                                               ; preds = %4
  call void @_ZNSaIcEC1Ev(ptr noundef nonnull align 1 dereferenceable(1) %6) #27
  %18 = invoke noundef ptr @_ZNSt7__cxx1112basic_stringIcSt11char_traitsIcESaIcEE13_M_local_dataEv(ptr noundef nonnull align 8 dereferenceable(32) %0)
          to label %.noexc unwind label %21

.noexc:                                           ; preds = %17
  invoke void @_ZNSt7__cxx1112basic_stringIcSt11char_traitsIcESaIcEE12_Alloc_hiderC1EPcRKS3_(ptr noundef nonnull align 8 dereferenceable(8) %0, ptr noundef %18, ptr noundef nonnull align 1 dereferenceable(1) %6)
          to label %.noexc6 unwind label %21

.noexc6:                                          ; preds = %.noexc
  invoke void @_ZNSt7__cxx1112basic_stringIcSt11char_traitsIcESaIcEE12_M_constructIPKcEEvT_S8_St20forward_iterator_tag(ptr noundef nonnull align 8 dereferenceable(32) %0, ptr noundef nonnull @.str.19, ptr noundef nonnull getelementptr inbounds (i8, ptr @.str.19, i64 2))
          to label %_ZNSt7__cxx1112basic_stringIcSt11char_traitsIcESaIcEEC2IS3_EEPKcRKS3_.exit unwind label %19

19:                                               ; preds = %.noexc6
  %20 = landingpad { ptr, i32 }
          cleanup
  call void @_ZNSaIcED2Ev(ptr noundef nonnull align 1 dereferenceable(1) %0) #27
  br label %.body

_ZNSt7__cxx1112basic_stringIcSt11char_traitsIcESaIcEEC2IS3_EEPKcRKS3_.exit: ; preds = %.noexc6
  call void @_ZNSaIcED1Ev(ptr noundef nonnull align 1 dereferenceable(1) %6) #27
  br label %52

21:                                               ; preds = %.noexc, %17
  %22 = landingpad { ptr, i32 }
          cleanup
  br label %.body

common.resume:                                    ; preds = %34, %.body.i, %.body
  %common.resume.op = phi { ptr, i32 } [ %eh.lpad-body, %.body ], [ %35, %34 ], [ %eh.lpad-body.i, %.body.i ]
  resume { ptr, i32 } %common.resume.op

.body:                                            ; preds = %19, %21
  %eh.lpad-body = phi { ptr, i32 } [ %22, %21 ], [ %20, %19 ]
  call void @_ZNSaIcED1Ev(ptr noundef nonnull align 1 dereferenceable(1) %6) #27
  br label %common.resume

23:                                               ; preds = %4
  %24 = getelementptr inbounds i32, ptr %10, i64 %15
  %25 = load i32, ptr %24, align 4
  br i1 %3, label %26, label %50

26:                                               ; preds = %23
  call void @llvm.lifetime.start.p0(i64 1, ptr nonnull %5)
  %27 = load atomic i8, ptr @_ZGVZN10open_spiel11tiny_bridge12_GLOBAL__N_130ChanceOutcomeToHandAbstractionEiE20concrete_to_abstract acquire, align 8, !noalias !21
  %28 = icmp eq i8 %27, 0
  br i1 %28, label %29, label %_ZN10open_spiel11tiny_bridge12_GLOBAL__N_130ChanceOutcomeToHandAbstractionEi.exit.i, !prof !24

29:                                               ; preds = %26
  %30 = tail call i32 @__cxa_guard_acquire(ptr nonnull @_ZGVZN10open_spiel11tiny_bridge12_GLOBAL__N_130ChanceOutcomeToHandAbstractionEiE20concrete_to_abstract) #27, !noalias !21
  %.not.i.i = icmp eq i32 %30, 0
  br i1 %.not.i.i, label %_ZN10open_spiel11tiny_bridge12_GLOBAL__N_130ChanceOutcomeToHandAbstractionEi.exit.i, label %31

31:                                               ; preds = %29
  invoke fastcc void @_ZN10open_spiel11tiny_bridge12_GLOBAL__N_118ConcreteToAbstractEv()
          to label %32 unwind label %34, !noalias !21

32:                                               ; preds = %31
  %33 = tail call i32 @__cxa_atexit(ptr nonnull @_ZNSt6vectorIiSaIiEED2Ev, ptr nonnull @_ZZN10open_spiel11tiny_bridge12_GLOBAL__N_130ChanceOutcomeToHandAbstractionEiE20concrete_to_abstract, ptr nonnull @__dso_handle) #27, !noalias !21
  tail call void @__cxa_guard_release(ptr nonnull @_ZGVZN10open_spiel11tiny_bridge12_GLOBAL__N_130ChanceOutcomeToHandAbstractionEiE20concrete_to_abstract) #27, !noalias !21
  br label %_ZN10open_spiel11tiny_bridge12_GLOBAL__N_130ChanceOutcomeToHandAbstractionEi.exit.i

34:                                               ; preds = %31
  %35 = landingpad { ptr, i32 }
          cleanup
  tail call void @__cxa_guard_abort(ptr nonnull @_ZGVZN10open_spiel11tiny_bridge12_GLOBAL__N_130ChanceOutcomeToHandAbstractionEiE20concrete_to_abstract) #27, !noalias !21
  br label %common.resume

_ZN10open_spiel11tiny_bridge12_GLOBAL__N_130ChanceOutcomeToHandAbstractionEi.exit.i: ; preds = %32, %29, %26
  %36 = sext i32 %25 to i64
  %37 = load ptr, ptr @_ZZN10open_spiel11tiny_bridge12_GLOBAL__N_130ChanceOutcomeToHandAbstractionEiE20concrete_to_abstract, align 8, !noalias !21
  %38 = getelementptr inbounds i32, ptr %37, i64 %36
  %39 = load i32, ptr %38, align 4, !noalias !21
  %40 = sext i32 %39 to i64
  %41 = getelementptr inbounds [12 x ptr], ptr @_ZN10open_spiel11tiny_bridge12_GLOBAL__N_112kAbstractionE, i64 0, i64 %40
  %42 = load ptr, ptr %41, align 8, !noalias !21
  call void @_ZNSaIcEC1Ev(ptr noundef nonnull align 1 dereferenceable(1) %5) #27, !noalias !21
  %43 = invoke noundef ptr @_ZNSt7__cxx1112basic_stringIcSt11char_traitsIcESaIcEE13_M_local_dataEv(ptr noundef nonnull align 8 dereferenceable(32) %0)
          to label %.noexc.i unwind label %48

.noexc.i:                                         ; preds = %_ZN10open_spiel11tiny_bridge12_GLOBAL__N_130ChanceOutcomeToHandAbstractionEi.exit.i
  invoke void @_ZNSt7__cxx1112basic_stringIcSt11char_traitsIcESaIcEE12_Alloc_hiderC1EPcRKS3_(ptr noundef nonnull align 8 dereferenceable(8) %0, ptr noundef %43, ptr noundef nonnull align 1 dereferenceable(1) %5)
          to label %.noexc2.i unwind label %48

44:                                               ; preds = %.noexc2.i
  %45 = landingpad { ptr, i32 }
          cleanup
  call void @_ZNSaIcED2Ev(ptr noundef nonnull align 1 dereferenceable(1) %0) #27
  br label %.body.i

.noexc2.i:                                        ; preds = %.noexc.i
  %46 = call noundef i64 @strlen(ptr noundef nonnull dereferenceable(1) %42) #27
  %47 = getelementptr inbounds i8, ptr %42, i64 %46
  invoke void @_ZNSt7__cxx1112basic_stringIcSt11char_traitsIcESaIcEE12_M_constructIPKcEEvT_S8_St20forward_iterator_tag(ptr noundef nonnull align 8 dereferenceable(32) %0, ptr noundef nonnull %42, ptr noundef nonnull %47)
          to label %_ZN10open_spiel11tiny_bridge12_GLOBAL__N_136ChanceOutcomeToHandAbstractionStringB5cxx11Ei.exit unwind label %44

48:                                               ; preds = %.noexc.i, %_ZN10open_spiel11tiny_bridge12_GLOBAL__N_130ChanceOutcomeToHandAbstractionEi.exit.i
  %49 = landingpad { ptr, i32 }
          cleanup
  br label %.body.i

.body.i:                                          ; preds = %48, %44
  %eh.lpad-body.i = phi { ptr, i32 } [ %49, %48 ], [ %45, %44 ]
  call void @_ZNSaIcED1Ev(ptr noundef nonnull align 1 dereferenceable(1) %5) #27
  br label %common.resume

_ZN10open_spiel11tiny_bridge12_GLOBAL__N_136ChanceOutcomeToHandAbstractionStringB5cxx11Ei.exit: ; preds = %.noexc2.i
  call void @_ZNSaIcED1Ev(ptr noundef nonnull align 1 dereferenceable(1) %5) #27
  call void @llvm.lifetime.end.p0(i64 1, ptr nonnull %5)
  br label %52

50:                                               ; preds = %23
  %51 = sext i32 %25 to i64
  tail call void @_ZN10open_spiel11tiny_bridge10HandStringB5cxx11El(ptr dead_on_unwind writable sret(%"class.std::__cxx11::basic_string") align 8 %0, i64 noundef %51)
  br label %52

52:                                               ; preds = %_ZN10open_spiel11tiny_bridge12_GLOBAL__N_136ChanceOutcomeToHandAbstractionStringB5cxx11Ei.exit, %50, %_ZNSt7__cxx1112basic_stringIcSt11char_traitsIcESaIcEEC2IS3_EEPKcRKS3_.exit
  ret void
}